(dp0
S'global_data'
p1
(dp2
S'control'
p3
(dp4
S'route'
p5
V192.168.24.1
p6
sS'mask'
p7
I24
sS'ec2'
p8
V192.168.24.1
p9
ssS'major'
p10
I1
sS'management'
p11
(dp12
S'start'
p13
V172.20.0.10
p14
sS'cidr'
p15
V172.20.0.0/24
p16
sS'vlan'
p17
I6
sS'end'
p18
V172.20.0.250
p19
ssS'dns2'
p20
V8.8.4.4
p21
sS'dns1'
p22
V8.8.8.8
p23
sS'storage'
p24
(dp25
g13
V172.18.0.10
p26
sg15
V172.18.0.0/24
p27
sg17
I3
sg18
V172.18.0.250
p28
ssS'auto_routes'
p29
I01
sS'bond_options'
p30
Vbond_mode=balance-slb
p31
sS'version'
p32
I2
sS'external'
p33
(dp34
S'bridge'
p35
V''
p36
sg18
V10.0.0.50
p37
sg17
I1
sg13
V10.0.0.10
p38
sg15
V10.0.0.0/24
p39
sS'gateway'
p40
V10.0.0.1
p41
ssS'internal_api'
p42
(dp43
g13
V172.17.0.10
p44
sg15
V172.17.0.0/24
p45
sg17
I2
sg18
V172.17.0.250
p46
ssS'ipv6'
p47
I00
sS'storage_mgmt'
p48
(dp49
g13
V172.19.0.10
p50
sg15
V172.19.0.0/24
p51
sg17
I4
sg18
V172.19.0.250
p52
ssS'minor'
p53
I2
sS'tenant'
p54
(dp55
g13
V172.16.0.10
p56
sg15
V172.16.0.0/24
p57
sg17
I5
sg18
V172.16.0.250
p58
sssS'data'
p59
(dp60
S'cinder-storage.yaml'
p61
(lp62
sS'ceph-storage.yaml'
p63
(lp64
(dp65
Vaddresses
p66
(lp67
sVnetwork
p68
VControlPlane
p69
sVprimary
p70
I01
sVmtu
p71
I1350
sS'members'
p72
(lp73
sVroutes
p74
(lp75
sVuse_dhcp
p76
I00
sVtype
p77
Vinterface
p78
sVname
p79
Vnic1
p80
sa(dp81
Vaddresses
p82
(lp83
sVnetwork
p84
VStorage
p85
sVprimary
p86
I01
sVmtu
p87
I1350
sg72
(lp88
sVroutes
p89
(lp90
sVuse_dhcp
p91
I00
sVtype
p92
Vinterface
p93
sVname
p94
Vnic5
p95
sa(dp96
Vaddresses
p97
(lp98
sVnetwork
p99
VStorageMgmt
p100
sVprimary
p101
I01
sVmtu
p102
I1350
sg72
(lp103
sVroutes
p104
(lp105
sVuse_dhcp
p106
I00
sVtype
p107
Vinterface
p108
sVname
p109
Vnic6
p110
sasS'controller.yaml'
p111
(lp112
(dp113
Vaddresses
p114
(lp115
sVnetwork
p116
VControlPlane
p117
sVprimary
p118
I01
sVmtu
p119
I1350
sg72
(lp120
sVroutes
p121
(lp122
sVuse_dhcp
p123
I00
sVtype
p124
Vinterface
p125
sVname
p126
Vnic1
p127
sa(dp128
Vdns_servers
p129
V{get_param: DnsServers}
p130
sVaddresses
p131
(lp132
sVnetwork
p133
VExternal
p134
sVmtu
p135
I-1
sg72
(lp136
(dp137
Vnetwork
p138
VNone
p139
sVbond_type
p140
Vovs
p141
sVovs_options
p142
V{get_param: BondInterfaceOvsOptions}
p143
sVmtu
p144
I-1
sg72
(lp145
(dp146
Vaddresses
p147
(lp148
sVnetwork
p149
VNone
p150
sVprimary
p151
I01
sVmtu
p152
I1350
sVroutes
p153
(lp154
sVuse_dhcp
p155
I00
sVtype
p156
Vinterface
p157
sVname
p158
Vnic2
p159
sa(dp160
Vaddresses
p161
(lp162
sVnetwork
p163
VNone
p164
sVprimary
p165
I00
sVmtu
p166
I1350
sVroutes
p167
(lp168
sVuse_dhcp
p169
I00
sVtype
p170
Vinterface
p171
sVname
p172
Vnic3
p173
sasVroutes
p174
(lp175
sVtype
p176
Vovs_bond
p177
sVname
p178
Vbond1
p179
sasVroutes
p180
(lp181
sVuse_dhcp
p182
I00
sVtype
p183
Vovs_bridge
p184
sVname
p185
Vbr-ex
p186
sa(dp187
Vaddresses
p188
(lp189
sVnetwork
p190
VInternalApi
p191
sVprimary
p192
I01
sVmtu
p193
I1350
sg72
(lp194
sVroutes
p195
(lp196
sVuse_dhcp
p197
I00
sVtype
p198
Vinterface
p199
sVname
p200
Vnic4
p201
sa(dp202
Vaddresses
p203
(lp204
sVnetwork
p205
VStorage
p206
sVprimary
p207
I01
sVmtu
p208
I1350
sg72
(lp209
sVroutes
p210
(lp211
sVuse_dhcp
p212
I00
sVtype
p213
Vinterface
p214
sVname
p215
Vnic5
p216
sa(dp217
Vaddresses
p218
(lp219
sVnetwork
p220
VStorageMgmt
p221
sVprimary
p222
I01
sVmtu
p223
I1350
sg72
(lp224
sVroutes
p225
(lp226
sVuse_dhcp
p227
I00
sVtype
p228
Vinterface
p229
sVname
p230
Vnic6
p231
sa(dp232
Vdns_servers
p233
V{get_param: DnsServers}
p234
sVaddresses
p235
(lp236
sVnetwork
p237
VTenant
p238
sVmtu
p239
I-1
sg72
(lp240
(dp241
Vaddresses
p242
(lp243
sVnetwork
p244
VNone
p245
sVprimary
p246
I01
sVmtu
p247
I1350
sg72
(lp248
sVroutes
p249
(lp250
sVuse_dhcp
p251
I00
sVtype
p252
Vinterface
p253
sVname
p254
Vnic7
p255
sasVroutes
p256
(lp257
sVuse_dhcp
p258
I00
sVtype
p259
Vovs_bridge
p260
sVname
p261
Vbr-tenant
p262
sasS'swift-storage.yaml'
p263
(lp264
sS'compute.yaml'
p265
(lp266
(dp267
Vaddresses
p268
(lp269
sVnetwork
p270
VControlPlane
p271
sVprimary
p272
I01
sVmtu
p273
I1350
sg72
(lp274
sVroutes
p275
(lp276
sVuse_dhcp
p277
I00
sVtype
p278
Vinterface
p279
sVname
p280
Vnic1
p281
sa(dp282
Vaddresses
p283
(lp284
sVnetwork
p285
VInternalApi
p286
sVprimary
p287
I01
sVmtu
p288
I1350
sg72
(lp289
sVroutes
p290
(lp291
sVuse_dhcp
p292
I00
sVtype
p293
Vinterface
p294
sVname
p295
Vnic4
p296
sa(dp297
Vaddresses
p298
(lp299
sVnetwork
p300
VStorage
p301
sVprimary
p302
I01
sVmtu
p303
I1350
sg72
(lp304
sVroutes
p305
(lp306
sVuse_dhcp
p307
I00
sVtype
p308
Vinterface
p309
sVname
p310
Vnic5
p311
sa(dp312
Vdns_servers
p313
V{get_param: DnsServers}
p314
sVaddresses
p315
(lp316
sVnetwork
p317
VTenant
p318
sVmtu
p319
I-1
sg72
(lp320
(dp321
Vaddresses
p322
(lp323
sVnetwork
p324
VNone
p325
sVprimary
p326
I01
sVmtu
p327
I1350
sg72
(lp328
sVroutes
p329
(lp330
sVuse_dhcp
p331
I00
sVtype
p332
Vinterface
p333
sVname
p334
Vnic7
p335
sasVroutes
p336
(lp337
sVuse_dhcp
p338
I00
sVtype
p339
Vovs_bridge
p340
sVname
p341
Vbr-tenant
p342
sass.