(dp0
S'global_data'
p1
(dp2
S'control'
p3
(dp4
S'route'
p5
V192.168.24.1
p6
sS'mask'
p7
I24
sS'ec2'
p8
V192.168.24.1
p9
ssS'major'
p10
I1
sS'management'
p11
(dp12
S'start'
p13
V172.20.0.10
p14
sS'cidr'
p15
V172.20.0.0/24
p16
sS'vlan'
p17
I6
sS'end'
p18
V172.20.0.250
p19
ssS'dns2'
p20
V8.8.4.4
p21
sS'dns1'
p22
V8.8.8.8
p23
sS'storage'
p24
(dp25
g13
Vfd00:fd00:fd00:3000::10
p26
sg15
Vfd00:fd00:fd00:3000::/64
p27
sg17
I3
sg18
Vfd00:fd00:fd00:3000:ffff:ffff:ffff:fffe
p28
ssS'auto_routes'
p29
I00
sS'bond_options'
p30
V
p31
sS'version'
p32
I2
sS'external'
p33
(dp34
S'bridge'
p35
V''
p36
sg18
V2001:db8:fd00:1000:ffff:ffff:ffff:fffe
p37
sg17
I1
sg13
V2001:db8:fd00:1000::10
p38
sg15
V2001:db8:fd00:1000::/64
p39
sS'gateway'
p40
V2001:db8:fd00:1000::1
p41
ssS'internal_api'
p42
(dp43
g13
Vfd00:fd00:fd00:2000::10
p44
sg15
Vfd00:fd00:fd00:2000::/64
p45
sg17
I2
sg18
Vfd00:fd00:fd00:2000:ffff:ffff:ffff:fffe
p46
ssS'ipv6'
p47
I01
sS'storage_mgmt'
p48
(dp49
g13
Vfd00:fd00:fd00:4000::10
p50
sg15
Vfd00:fd00:fd00:4000::/64
p51
sg17
I4
sg18
Vfd00:fd00:fd00:4000:ffff:ffff:ffff:fffe
p52
ssS'minor'
p53
I2
sS'tenant'
p54
(dp55
g13
V172.16.0.10
p56
sg15
V172.16.0.0/24
p57
sg17
I5
sg18
V172.16.0.250
p58
sssS'data'
p59
(dp60
S'cinder-storage.yaml'
p61
(lp62
sS'ceph-storage.yaml'
p63
(lp64
(dp65
Vaddresses
p66
(lp67
sVnetwork
p68
VControlPlane
p69
sVprimary
p70
I01
sVmtu
p71
I1350
sS'members'
p72
(lp73
(dp74
Vip_netmask
p75
V0.0.0.0/0
p76
sVname
p77
VRoute
p78
sVdefault
p79
I01
sVnext_hop
p80
V{get_param: ControlPlaneDefaultRoute}
p81
sg72
(lp82
sVtype
p83
Vroute
p84
sasVroutes
p85
(lp86
sVuse_dhcp
p87
I00
sVtype
p88
Vinterface
p89
sVname
p90
Vnic1
p91
sa(dp92
Vaddresses
p93
(lp94
sVnetwork
p95
VStorage
p96
sVprimary
p97
I01
sVmtu
p98
I1350
sg72
(lp99
sVroutes
p100
(lp101
sVuse_dhcp
p102
I00
sVtype
p103
Vinterface
p104
sVname
p105
Vnic4
p106
sa(dp107
Vaddresses
p108
(lp109
sVnetwork
p110
VStorageMgmt
p111
sVprimary
p112
I01
sVmtu
p113
I1350
sg72
(lp114
sVroutes
p115
(lp116
sVuse_dhcp
p117
I00
sVtype
p118
Vinterface
p119
sVname
p120
Vnic5
p121
sasS'controller.yaml'
p122
(lp123
(dp124
Vaddresses
p125
(lp126
sVnetwork
p127
VControlPlane
p128
sVprimary
p129
I01
sVmtu
p130
I1350
sg72
(lp131
(dp132
Vip_netmask
p133
V0.0.0.0/0
p134
sVname
p135
VRoute
p136
sVdefault
p137
I01
sVnext_hop
p138
V{get_param: ControlPlaneDefaultRoute}
p139
sg72
(lp140
sVtype
p141
Vroute
p142
sasVroutes
p143
(lp144
sVuse_dhcp
p145
I00
sVtype
p146
Vinterface
p147
sVname
p148
Vnic1
p149
sa(dp150
Vdns_servers
p151
V{get_param: DnsServers}
p152
sVaddresses
p153
(lp154
sVnetwork
p155
VExternal
p156
sVmtu
p157
I-1
sg72
(lp158
(dp159
Vaddresses
p160
(lp161
sVnetwork
p162
VNone
p163
sVprimary
p164
I01
sVmtu
p165
I1350
sg72
(lp166
sVroutes
p167
(lp168
sVuse_dhcp
p169
I00
sVtype
p170
Vinterface
p171
sVname
p172
Vnic2
p173
sa(dp174
Vip_netmask
p175
V0.0.0.0/0
p176
sVname
p177
VRoute
p178
sVdefault
p179
I01
sVnext_hop
p180
V{get_param: ExternalInterfaceDefaultRoute}
p181
sg72
(lp182
sVtype
p183
Vroute
p184
sasVroutes
p185
(lp186
sVuse_dhcp
p187
I00
sVtype
p188
Vovs_bridge
p189
sVname
p190
Vbr-ex
p191
sa(dp192
Vaddresses
p193
(lp194
sVnetwork
p195
VInternalApi
p196
sVprimary
p197
I01
sVmtu
p198
I1350
sg72
(lp199
sVroutes
p200
(lp201
sVuse_dhcp
p202
I00
sVtype
p203
Vinterface
p204
sVname
p205
Vnic3
p206
sa(dp207
Vaddresses
p208
(lp209
sVnetwork
p210
VStorage
p211
sVprimary
p212
I01
sVmtu
p213
I1350
sg72
(lp214
sVroutes
p215
(lp216
sVuse_dhcp
p217
I00
sVtype
p218
Vinterface
p219
sVname
p220
Vnic4
p221
sa(dp222
Vaddresses
p223
(lp224
sVnetwork
p225
VStorageMgmt
p226
sVprimary
p227
I01
sVmtu
p228
I1350
sg72
(lp229
sVroutes
p230
(lp231
sVuse_dhcp
p232
I00
sVtype
p233
Vinterface
p234
sVname
p235
Vnic5
p236
sa(dp237
Vdns_servers
p238
V{get_param: DnsServers}
p239
sVaddresses
p240
(lp241
sVnetwork
p242
VTenant
p243
sVmtu
p244
I-1
sg72
(lp245
(dp246
Vaddresses
p247
(lp248
sVnetwork
p249
VNone
p250
sVprimary
p251
I01
sVmtu
p252
I1350
sg72
(lp253
sVroutes
p254
(lp255
sVuse_dhcp
p256
I00
sVtype
p257
Vinterface
p258
sVname
p259
Vnic6
p260
sasVroutes
p261
(lp262
sVuse_dhcp
p263
I00
sVtype
p264
Vovs_bridge
p265
sVname
p266
Vbr-tenant
p267
sasS'swift-storage.yaml'
p268
(lp269
sS'compute.yaml'
p270
(lp271
(dp272
Vaddresses
p273
(lp274
sVnetwork
p275
VControlPlane
p276
sVprimary
p277
I01
sVmtu
p278
I1350
sg72
(lp279
(dp280
Vip_netmask
p281
V0.0.0.0/0
p282
sVname
p283
VRoute
p284
sVdefault
p285
I01
sVnext_hop
p286
V{get_param: ControlPlaneDefaultRoute}
p287
sg72
(lp288
sVtype
p289
Vroute
p290
sasVroutes
p291
(lp292
sVuse_dhcp
p293
I00
sVtype
p294
Vinterface
p295
sVname
p296
Vnic1
p297
sa(dp298
Vaddresses
p299
(lp300
sVnetwork
p301
VInternalApi
p302
sVprimary
p303
I01
sVmtu
p304
I1350
sg72
(lp305
sVroutes
p306
(lp307
sVuse_dhcp
p308
I00
sVtype
p309
Vinterface
p310
sVname
p311
Vnic3
p312
sa(dp313
Vaddresses
p314
(lp315
sVnetwork
p316
VStorage
p317
sVprimary
p318
I01
sVmtu
p319
I1350
sg72
(lp320
sVroutes
p321
(lp322
sVuse_dhcp
p323
I00
sVtype
p324
Vinterface
p325
sVname
p326
Vnic4
p327
sa(dp328
Vdns_servers
p329
V{get_param: DnsServers}
p330
sVaddresses
p331
(lp332
sVnetwork
p333
VTenant
p334
sVmtu
p335
I-1
sg72
(lp336
(dp337
Vaddresses
p338
(lp339
sVnetwork
p340
VNone
p341
sVprimary
p342
I01
sVmtu
p343
I1350
sg72
(lp344
sVroutes
p345
(lp346
sVuse_dhcp
p347
I00
sVtype
p348
Vinterface
p349
sVname
p350
Vnic6
p351
sasVroutes
p352
(lp353
sVuse_dhcp
p354
I00
sVtype
p355
Vovs_bridge
p356
sVname
p357
Vbr-tenant
p358
sass.