(dp0
S'global_data'
p1
(dp2
S'control'
p3
(dp4
S'route'
p5
V192.168.24.1
p6
sS'mask'
p7
I24
sS'ec2'
p8
V192.168.24.1
p9
ssS'major'
p10
I1
sS'management'
p11
(dp12
S'start'
p13
V172.20.0.10
p14
sS'cidr'
p15
V172.20.0.0/24
p16
sS'vlan'
p17
I6
sS'end'
p18
V172.20.0.250
p19
ssS'dns2'
p20
V8.8.4.4
p21
sS'dns1'
p22
V8.8.8.8
p23
sS'storage'
p24
(dp25
g13
V172.18.0.10
p26
sg15
V172.18.0.0/24
p27
sg17
I3
sg18
V172.18.0.250
p28
ssS'auto_routes'
p29
I01
sS'bond_options'
p30
V
p31
sS'version'
p32
I1
sS'external'
p33
(dp34
S'bridge'
p35
V''
p36
sg18
V10.0.0.50
p37
sg17
I1
sg13
V10.0.0.10
p38
sg15
V10.0.0.0/24
p39
sS'gateway'
p40
V10.0.0.1
p41
ssS'internal_api'
p42
(dp43
g13
V172.17.0.10
p44
sg15
V172.17.0.0/24
p45
sg17
I2
sg18
V172.17.0.250
p46
ssS'ipv6'
p47
I00
sS'storage_mgmt'
p48
(dp49
g13
V172.19.0.10
p50
sg15
V172.19.0.0/24
p51
sg17
I4
sg18
V172.19.0.250
p52
ssS'minor'
p53
I2
sS'tenant'
p54
(dp55
g13
V172.16.0.10
p56
sg15
V172.16.0.0/24
p57
sg17
I5
sg18
V172.16.0.250
p58
sssS'data'
p59
(dp60
S'cinder-storage.yaml'
p61
(lp62
sS'ceph-storage.yaml'
p63
(lp64
(dp65
Vaddresses
p66
(lp67
sVnetwork
p68
VControlPlane
p69
sVprimary
p70
I01
sVmtu
p71
I1350
sVport_name
p72
g31
sS'members'
p73
(lp74
sVroutes
p75
(lp76
sVuse_dhcp
p77
I00
sVtype
p78
Vinterface
p79
sVname
p80
Vnic1
p81
sa(dp82
Vaddresses
p83
(lp84
sVnetwork
p85
VStorage
p86
sVprimary
p87
I01
sVmtu
p88
I1350
sVport_name
p89
g31
sg73
(lp90
sVroutes
p91
(lp92
sVuse_dhcp
p93
I00
sVtype
p94
Vinterface
p95
sVname
p96
Vnic4
p97
sa(dp98
Vaddresses
p99
(lp100
sVnetwork
p101
VStorageMgmt
p102
sVprimary
p103
I01
sVmtu
p104
I1350
sVport_name
p105
g31
sg73
(lp106
sVroutes
p107
(lp108
sVuse_dhcp
p109
I00
sVtype
p110
Vinterface
p111
sVname
p112
Vnic5
p113
sasS'controller.yaml'
p114
(lp115
(dp116
Vaddresses
p117
(lp118
sVnetwork
p119
VControlPlane
p120
sVprimary
p121
I01
sVmtu
p122
I1350
sVport_name
p123
g31
sg73
(lp124
sVroutes
p125
(lp126
sVuse_dhcp
p127
I00
sVtype
p128
Vinterface
p129
sVname
p130
Vnic1
p131
sa(dp132
Vdns_servers
p133
V{get_param: DnsServers}
p134
sVaddresses
p135
(lp136
sVnetwork
p137
VExternal
p138
sVmtu
p139
I-1
sg73
(lp140
(dp141
Vaddresses
p142
(lp143
sVnetwork
p144
VNone
p145
sVprimary
p146
I01
sVmtu
p147
I1350
sVport_name
p148
g31
sg73
(lp149
sVroutes
p150
(lp151
sVuse_dhcp
p152
I00
sVtype
p153
Vinterface
p154
sVname
p155
Vnic2
p156
sasVroutes
p157
(lp158
sVuse_dhcp
p159
I00
sVtype
p160
Vovs_bridge
p161
sVname
p162
Vbr-ex
p163
sa(dp164
Vaddresses
p165
(lp166
sVnetwork
p167
VInternalApi
p168
sVprimary
p169
I01
sVmtu
p170
I1350
sVport_name
p171
g31
sg73
(lp172
sVroutes
p173
(lp174
sVuse_dhcp
p175
I00
sVtype
p176
Vinterface
p177
sVname
p178
Vnic3
p179
sa(dp180
Vaddresses
p181
(lp182
sVnetwork
p183
VStorage
p184
sVprimary
p185
I01
sVmtu
p186
I1350
sVport_name
p187
g31
sg73
(lp188
sVroutes
p189
(lp190
sVuse_dhcp
p191
I00
sVtype
p192
Vinterface
p193
sVname
p194
Vnic4
p195
sa(dp196
Vaddresses
p197
(lp198
sVnetwork
p199
VStorageMgmt
p200
sVprimary
p201
I01
sVmtu
p202
I1350
sVport_name
p203
g31
sg73
(lp204
sVroutes
p205
(lp206
sVuse_dhcp
p207
I00
sVtype
p208
Vinterface
p209
sVname
p210
Vnic5
p211
sa(dp212
Vdns_servers
p213
V{get_param: DnsServers}
p214
sVaddresses
p215
(lp216
sVnetwork
p217
VTenant
p218
sVmtu
p219
I-1
sg73
(lp220
(dp221
Vaddresses
p222
(lp223
sVnetwork
p224
VNone
p225
sVprimary
p226
I01
sVmtu
p227
I1350
sVport_name
p228
g31
sg73
(lp229
sVroutes
p230
(lp231
sVuse_dhcp
p232
I00
sVtype
p233
Vinterface
p234
sVname
p235
Vnic6
p236
sasVroutes
p237
(lp238
sVuse_dhcp
p239
I00
sVtype
p240
Vovs_bridge
p241
sVname
p242
Vbr-tenant
p243
sasS'swift-storage.yaml'
p244
(lp245
sS'compute.yaml'
p246
(lp247
(dp248
Vaddresses
p249
(lp250
sVnetwork
p251
VControlPlane
p252
sVprimary
p253
I01
sVmtu
p254
I1350
sVport_name
p255
g31
sg73
(lp256
sVroutes
p257
(lp258
sVuse_dhcp
p259
I00
sVtype
p260
Vinterface
p261
sVname
p262
Vnic1
p263
sa(dp264
Vaddresses
p265
(lp266
sVnetwork
p267
VInternalApi
p268
sVprimary
p269
I01
sVmtu
p270
I1350
sVport_name
p271
g31
sg73
(lp272
sVroutes
p273
(lp274
sVuse_dhcp
p275
I00
sVtype
p276
Vinterface
p277
sVname
p278
Vnic3
p279
sa(dp280
Vaddresses
p281
(lp282
sVnetwork
p283
VStorage
p284
sVprimary
p285
I01
sVmtu
p286
I1350
sVport_name
p287
g31
sg73
(lp288
sVroutes
p289
(lp290
sVuse_dhcp
p291
I00
sVtype
p292
Vinterface
p293
sVname
p294
Vnic4
p295
sa(dp296
Vdns_servers
p297
V{get_param: DnsServers}
p298
sVaddresses
p299
(lp300
sVnetwork
p301
VTenant
p302
sVmtu
p303
I-1
sg73
(lp304
(dp305
Vaddresses
p306
(lp307
sVnetwork
p308
VNone
p309
sVprimary
p310
I01
sVmtu
p311
I1350
sVport_name
p312
g31
sg73
(lp313
sVroutes
p314
(lp315
sVuse_dhcp
p316
I00
sVtype
p317
Vinterface
p318
sVname
p319
Vnic6
p320
sasVroutes
p321
(lp322
sVuse_dhcp
p323
I00
sVtype
p324
Vovs_bridge
p325
sVname
p326
Vbr-tenant
p327
sa(dp328
Vaddresses
p329
(lp330
sVnetwork
p331
VStorageMgmt
p332
sVprimary
p333
I01
sVmtu
p334
I1350
sVport_name
p335
g31
sg73
(lp336
sVroutes
p337
(lp338
sVuse_dhcp
p339
I00
sVtype
p340
Vinterface
p341
sVname
p342
Vnic5
p343
sass.